target datalayout = "e-m:e-p270:32:32-p271:32:32-p272:64:64-i64:64-i128:128-f80:128-n8:16:32:64-S128"
target triple = "x86_64-pc-linux-gnu"

@hwloc_libxml2_needs_cleanup = internal global i32 0, align 4
@.str.16 = private unnamed_addr constant [6 x i8] c"UTF-8\00", align 1

; Function Attrs: nounwind uwtable
define internal void @hwloc_libxml2_cleanup() #0 {
  %1 = load i32, ptr @hwloc_libxml2_needs_cleanup, align 4, !tbaa !12
  %2 = icmp ne i32 %1, 0
  br i1 %2, label %3, label %4

3:                                                ; preds = %0
  call void @xmlCleanupParser()
  br label %4

4:                                                ; preds = %3, %0
  ret void
}

; Function Attrs: nounwind uwtable
define internal i32 @hwloc_libxml_export_buffer(ptr noundef %0, ptr noundef %1, ptr noundef %2, ptr noundef %3, i64 noundef %4) #0 {
  %6 = alloca i32, align 4
  %7 = alloca ptr, align 8
  %8 = alloca ptr, align 8
  %9 = alloca ptr, align 8
  %10 = alloca ptr, align 8
  %11 = alloca i64, align 8
  %12 = alloca ptr, align 8
  %13 = alloca i32, align 4
  store ptr %0, ptr %7, align 8, !tbaa !21
  store ptr %1, ptr %8, align 8, !tbaa !23
  store ptr %2, ptr %9, align 8, !tbaa !25
  store ptr %3, ptr %10, align 8, !tbaa !27
  store i64 %4, ptr %11, align 8, !tbaa !3
  call void @llvm.lifetime.start.p0(i64 8, ptr %12) #7
  %14 = load ptr, ptr %7, align 8, !tbaa !21
  %15 = load ptr, ptr %8, align 8, !tbaa !23
  %16 = load i64, ptr %11, align 8, !tbaa !3
  %17 = call ptr @hwloc__libxml2_prepare_export(ptr noundef %14, ptr noundef %15, i64 noundef %16)
  store ptr %17, ptr %12, align 8, !tbaa !14
  %18 = load ptr, ptr %12, align 8, !tbaa !14
  %19 = load ptr, ptr %9, align 8, !tbaa !25
  %20 = load ptr, ptr %10, align 8, !tbaa !27
  call void @xmlDocDumpFormatMemoryEnc(ptr noundef %18, ptr noundef %19, ptr noundef %20, ptr noundef @.str.16, i32 noundef 1)
  %21 = load ptr, ptr %12, align 8, !tbaa !14
  call void @xmlFreeDoc(ptr noundef %21)
  call void @hwloc_libxml2_cleanup()
  %22 = load ptr, ptr %9, align 8, !tbaa !25
  %23 = load ptr, ptr %22, align 8, !tbaa !7
  %24 = icmp ne ptr %23, null
  br i1 %24, label %27, label %25

25:                                               ; preds = %5
  %26 = load ptr, ptr %10, align 8, !tbaa !27
  store i32 0, ptr %26, align 4, !tbaa !12
  store i32 -1, ptr %6, align 4
  store i32 1, ptr %13, align 4
  br label %31

27:                                               ; preds = %5
  %28 = load ptr, ptr %10, align 8, !tbaa !27
  %29 = load i32, ptr %28, align 4, !tbaa !12
  %30 = add nsw i32 %29, 1
  store i32 %30, ptr %28, align 4, !tbaa !12
  store i32 0, ptr %6, align 4
  store i32 1, ptr %13, align 4
  br label %31

31:                                               ; preds = %27, %25
  call void @llvm.lifetime.end.p0(i64 8, ptr %12) #7
  %32 = load i32, ptr %6, align 4
  ret i32 %32
}