; Function Attrs: nounwind uwtable
define internal range(i32 -1, 1) i32 @hwloc_libxml_export_buffer(ptr noundef %0, ptr noundef %1, ptr noundef %2, ptr noundef %3, i64 noundef %4) #1 {
  %6 = tail call fastcc ptr @hwloc__libxml2_prepare_export(ptr noundef %0, ptr noundef %1, i64 noundef %4)
  tail call void @xmlDocDumpFormatMemoryEnc(ptr noundef %6, ptr noundef %2, ptr noundef %3, ptr noundef nonnull @.str.16, i32 noundef 1) #11
  tail call void @xmlFreeDoc(ptr noundef %6) #11
  %.b.i = load i1, ptr @hwloc_libxml2_needs_cleanup, align 4
  br i1 %.b.i, label %7, label %hwloc_libxml2_cleanup.exit

7:                                                ; preds = %5
  tail call void @xmlCleanupParser() #11
  br label %hwloc_libxml2_cleanup.exit

hwloc_libxml2_cleanup.exit:                       ; preds = %5, %7
  %8 = load ptr, ptr %2, align 8, !tbaa !15
  %.not = icmp eq ptr %8, null
  br i1 %.not, label %12, label %9

9:                                                ; preds = %hwloc_libxml2_cleanup.exit
  %10 = load i32, ptr %3, align 4, !tbaa !7
  %11 = add nsw i32 %10, 1
  br label %12

12:                                               ; preds = %hwloc_libxml2_cleanup.exit, %9
  %storemerge = phi i32 [ %11, %9 ], [ 0, %hwloc_libxml2_cleanup.exit ]
  %.0 = phi i32 [ 0, %9 ], [ -1, %hwloc_libxml2_cleanup.exit ]
  store i32 %storemerge, ptr %3, align 4, !tbaa !7
  ret i32 %.0
}